(dp0
S'Fitted_err_ZGamma'
p1
(lp2
F0.6350923986603169
aF0.16434210965377202
aF0.29612237353009113
aF0.01637536047423803
aF18.160084816662057
aF8.317226570593432
aF10.280896815736059
asS'MC_exp_events_Other'
p3
(lp4
F2.930805565903759
aF0.5135842329831393
aF0.9423987678437697
aF1.4748121734208368
aF8.935205102186508
aF4.054183269075018
aF4.8809887835697054
asS'Fitted_events_Other'
p5
(lp6
F2.931011846129484
aF0.5139743090408471
aF0.9420377314620723
aF1.4749740495090244
aF8.938307790654012
aF4.056065700254439
aF4.88220215162372
asS'names'
p7
(lp8
S'CR_top_all_mbl_0'
p9
aS'CR_top_ee_mbl_0'
p10
aS'CR_top_mm_mbl_0'
p11
aS'CR_top_em_mbl_0'
p12
aS'CR_Z_all_mbl_0'
p13
aS'CR_Z_ee_mbl_0'
p14
aS'CR_Z_mm_mbl_0'
p15
asS'MC_exp_err_ttbar'
p16
(lp17
F36.73672793475302
aF7.903773793030795
aF9.884260790166026
aF19.015942856361768
aF1.1105494464207732
aF0.39364302361947584
aF0.7418440075614672
asS'TOTAL_MC_EXP_BKG_err'
p18
(lp19
F38.35307059487185
aF8.281200913336736
aF10.333183318155243
aF19.81010437725205
aF26.48936485521553
aF12.056597983206812
aF14.593044100897874
asS'TOTAL_FITTED_bkg_events'
p20
(lp21
F369.1436075133025
aF80.7917162613178
aF101.19540878329107
aF187.15662285335566
aF327.10646382097997
aF145.20271951514837
aF181.9032183710545
asS'MC_exp_err_Other'
p22
(lp23
F0.27991890199108055
aF0.06354796470405809
aF0.08730690115643808
aF0.14372789435964728
aF1.0517112384778622
aF0.5456899572561297
aF0.5541510317376238
asS'Fitted_events_SingleTop'
p24
(lp25
F17.29756332721439
aF3.8891505574326932
aF4.711893606450526
aF8.696500785688999
aF0.8556044905987408
aF0.38446420940550335
aF0.47113730299854617
asS'MC_exp_err_SingleTop'
p26
(lp27
F2.1107525960033953
aF0.4802347537956465
aF0.5752606016289437
aF1.0633721556859097
aF0.09404300028837144
aF0.04356528606779385
aF0.052384003000003974
asS'Fitted_err_ttbar'
p28
(lp29
F19.372604404821328
aF4.259442227172404
aF5.3352785652536605
aF9.92547129025363
aF0.6906780357815466
aF0.23523817026613938
aF0.4987066319442904
asS'Fitted_err_Other'
p30
(lp31
F0.2783180553902045
aF0.06346855508018764
aF0.08674729746120798
aF0.1428876903095535
aF1.046683340014005
aF0.5434220573091396
aF0.5510101209213865
asS'Fitted_events_ZGamma'
p32
(lp33
F3.177004065444852
aF1.1707765594417407
aF1.855625711376906
aF0.15062347741839008
aF308.21040614142964
aF137.34881315624472
aF170.85989979663603
asS'MC_exp_err_ZGamma'
p34
(lp35
F0.3895130943099425
aF0.08253400759644115
aF0.15060398225244975
aF0.010254824103327181
aF24.688383163497605
aF11.299257378558725
aF13.555775052615425
asS'TOTAL_FITTED_bkg_events_err'
p36
(lp37
F19.2191143639203
aF4.225321487126435
aF5.299342380236406
aF9.87924607369852
aF18.08893486001414
aF8.304581109782962
aF10.235799166230851
asS'nobs'
p38
(lp39
F369.0
aF95.0
aF115.0
aF159.0
aF327.0
aF151.0
aF176.0
asS'Fitted_err_SingleTop'
p40
(lp41
F2.0980188402397224
aF0.4772665013641484
aF0.5717991053538685
aF1.0569854490039057
aF0.09344060971871344
aF0.04328541922441989
aF0.05204543384166159
asS'Fitted_events_ttbar'
p42
(lp43
F345.73802827451385
aF75.21750709400655
aF93.68546675085676
aF176.83381222219808
aF9.102145398297608
aF3.4128268998045566
aF5.689287656328157
asS'MC_exp_events_ttbar'
p44
(lp45
F322.5449700083569
aF70.17357034910117
aF87.40271470086157
aF164.96750180100673
aF8.492459911156082
aF3.1842961433094388
aF5.308134333974522
asS'MC_exp_events_ZGamma'
p46
(lp47
F2.2949227368774032
aF0.8454952732083854
aF1.3406303811417999
aF0.10878940142888327
aF222.4348513320978
aF99.12071352180367
aF123.31293776645907
asS'TOTAL_MC_EXP_BKG_events'
p48
(lp49
F345.0688524501445
aF75.42220285045914
aF94.39863894414157
aF175.24810231488664
aF240.71845420936188
aF106.74421315826477
aF133.9738888759166
asS'MC_exp_events_SingleTop'
p50
(lp51
F17.298154139006424
aF3.8892657063034335
aF4.712535974239906
aF8.696331938248505
aF0.8559378639215112
aF0.38461617995623243
aF0.47131868495727147
as.