(dp0
S'Fitted_err_ZGamma'
p1
(lp2
F0.6350923986603169
aF18.160084816662057
aF4.817934648435207
aF5.380852946927255
aF0.7916497979156703
aF60.36067002040642
aF0.2815234108451828
aF0.12248998941482793
asS'MC_exp_events_Other'
p3
(lp4
F2.930805565903759
aF8.935205102186508
aF4.895541017250107
aF8.499739881183558
aF2.1018953108146823
aF6.655041415746894
aF0.07013268488256634
aF0.041695801736022234
asS'Fitted_events_Other'
p5
(lp6
F2.931011846129484
aF8.938307790654012
aF4.894280763912964
aF8.497714446287736
aF2.1021774202447125
aF6.652581478235829
aF0.07036583459062723
aF0.04168048385727575
asS'names'
p7
(lp8
S'CR_top_all_mbl_0'
p9
aS'CR_Z_all_mbl_0'
p10
aS'VR_top_1_all_mbl_0'
p11
aS'VR_top_2_all_mbl_0'
p12
aS'VR_top_3_all_mbl_0'
p13
aS'VR_Z_all_mbl_0'
p14
aS'SR_ht_1100_mbl_400_all_mbl_0'
p15
aS'SR_ht_1100_mbl_600_all_mbl_0'
p16
asS'MC_exp_err_ttbar'
p17
(lp18
F36.73672793475302
aF1.1105494464207732
aF56.415105715554695
aF45.327503975909266
aF6.54331114249351
aF0.4060547468910739
aF0.11225118967693773
aF0.034624863178115944
asS'TOTAL_MC_EXP_BKG_err'
p19
(lp20
F38.35307059487185
aF26.48936485521553
aF60.95799318438905
aF53.27784838749003
aF8.187506033058957
aF44.70332749496885
aF0.3189681359921873
aF0.13389639912451864
asS'TOTAL_FITTED_bkg_events'
p21
(lp22
F369.1436075133025
aF327.10646382097997
aF693.3465168114941
aF627.125043270529
aF72.45173693035119
aF129.4897647163914
aF1.4037769171539007
aF0.5594740254426434
asS'MC_exp_err_Other'
p23
(lp24
F0.27991890199108055
aF1.0517112384778622
aF0.44697610708270075
aF0.8409357660516857
aF0.279769664688047
aF0.7192352143232308
aF0.035270888839440837
aF0.009206231092273394
asS'Fitted_events_SingleTop'
p25
(lp26
F17.29756332721439
aF0.8556044905987408
aF23.82414512648131
aF58.450127364674884
aF14.587996283486486
aF0.33266072129210494
aF0.4596056072680763
aF0.1903810352099008
asS'MC_exp_err_SingleTop'
p27
(lp28
F2.1107525960033953
aF0.09404300028837144
aF2.686215797636785
aF6.668450164310781
aF1.9606760220097474
aF0.04317133410274954
aF0.07943358174649254
aF0.042553580559325795
asS'Fitted_err_ttbar'
p29
(lp30
F19.372604404821328
aF0.6906780357815466
aF43.98166350713265
aF35.415371655652244
aF4.75990249418013
aF0.23485635395668442
aF0.10200842841258302
aF0.03583543083982625
asS'Fitted_err_Other'
p31
(lp32
F0.2783180553902045
aF1.046683340014005
aF0.4442084946960302
aF0.8362255651579906
aF0.2780829704711112
aF0.7147872545028247
aF0.035098007910798694
aF0.009180928266621168
asS'Fitted_events_ZGamma'
p33
(lp34
F3.177004065444852
aF308.21040614142964
aF63.19986553113864
aF64.32888291731574
aF1.5333934040426416
aF119.52295125421698
aF0.5420901150007879
aF0.2290726399339325
asS'MC_exp_err_ZGamma'
p35
(lp36
F0.3895130943099425
aF24.688383163497605
aF4.336414863355926
aF5.197346794669106
aF0.567990532578689
aF44.46282732823877
aF0.20933383279021534
aF0.0896863910641797
asS'TOTAL_FITTED_bkg_events_err'
p37
(lp38
F19.2191143639203
aF18.08893486001414
aF45.49337365881897
aF35.85220830519391
aF5.255923231648625
aF60.39571469537344
aF0.3515250858747807
aF0.15781718254604907
asS'nobs'
p39
(lp40
F369.0
aF327.0
aF645.0
aF606.0
aF67.0
aF101.0
aF0.0
aF0.0
asS'Fitted_err_SingleTop'
p41
(lp42
F2.0980188402397224
aF0.09344060971871344
aF2.669197367953241
aF6.626779152293525
aF1.9491337612936344
aF0.04287556173485832
aF0.07910328589133529
aF0.04242168351636694
asS'Fitted_events_ttbar'
p43
(lp44
F345.73802827451385
aF9.102145398297608
aF601.4255872322594
aF495.8453556970481
aF54.22797329353131
aF2.9806421574976083
aF0.33171536029440946
aF0.0983398664415342
asS'MC_exp_events_ttbar'
p45
(lp46
F322.5449700083569
aF8.492459911156082
aF561.32093069263
aF462.72007128825913
aF50.59201217061384
aF2.7813962473138343
aF0.3094690318297648
aF0.09182892372457087
asS'MC_exp_events_ZGamma'
p47
(lp48
F2.2949227368774032
aF222.4348513320978
aF45.629696593226875
aF46.4331752286094
aF1.1075874078189936
aF86.27990823574294
aF0.39125637635185
aF0.16541414791300535
asS'TOTAL_MC_EXP_BKG_events'
p49
(lp50
F345.0688524501445
aF240.71845420936188
aF635.6821581204422
aF576.1209735348821
aF68.39106293674558
aF96.04996065609157
aF1.2306023492906515
aF0.4894449664079565
asS'MC_exp_events_SingleTop'
p51
(lp52
F17.298154139006424
aF0.8559378639215112
aF23.833571093521332
aF58.46530396111632
aF14.589388030377913
aF0.33292904643561805
aF0.45974425622647047
aF0.19050609303435803
as.