(dp0
S'Fitted_err_ZGamma'
p1
(lp2
F0.2815234108451828
aF0.10494000590363228
aF0.18534423998706237
aF0.00013108111943021633
aF0.12248998941482793
aF0.046583582862811265
aF0.08512083511370262
aF5.859929539318979e-06
asS'MC_exp_events_Other'
p3
(lp4
F0.07013268488256634
aF0.0
aF0.04133778272620931
aF0.028794907744292244
aF0.041695801736022234
aF0.0
aF0.04133778272620931
aF0.00035801962099333645
asS'Fitted_events_Other'
p5
(lp6
F0.07036583459062723
aF0.0
aF0.04133798850292106
aF0.029158224665605036
aF0.04168048385727575
aF0.0
aF0.04133798850292106
aF0.00035772503988815987
asS'names'
p7
(lp8
S'SR_ht_1100_mbl_400_all_mbl_0'
p9
aS'SR_ht_1100_mbl_400_ee_mbl_0'
p10
aS'SR_ht_1100_mbl_400_mm_mbl_0'
p11
aS'SR_ht_1100_mbl_400_em_mbl_0'
p12
aS'SR_ht_1100_mbl_600_all_mbl_0'
p13
aS'SR_ht_1100_mbl_600_ee_mbl_0'
p14
aS'SR_ht_1100_mbl_600_mm_mbl_0'
p15
aS'SR_ht_1100_mbl_600_em_mbl_0'
p16
asS'MC_exp_err_ttbar'
p17
(lp18
F0.11225118967693773
aF0.08210157531559116
aF0.017530431075837048
aF0.05232137330508477
aF0.034624863178115944
aF0.01327688104270702
aF0.0
aF0.02956672321496718
asS'TOTAL_MC_EXP_BKG_err'
p19
(lp20
F0.3189681359921873
aF0.13273880765244378
aF0.15911337104062925
aF0.11793226241106193
aF0.13389639912451864
aF0.050262733958114994
aF0.07903911861270983
aF0.060245551928619454
asS'TOTAL_FITTED_bkg_events'
p21
(lp22
F1.4037769171539007
aF0.36533950712220314
aF0.5756822300568325
aF0.46286202283880196
aF0.5594740254426434
aF0.14617159767188778
aF0.24778225286398142
aF0.16553501734192624
asS'MC_exp_err_Other'
p23
(lp24
F0.035270888839440837
aF0.0
aF0.009016209895757387
aF0.03354966079813959
aF0.009206231092273394
aF0.0
aF0.012215447742885953
aF0.0001271349744687717
asS'Fitted_events_SingleTop'
p25
(lp26
F0.4596056072680763
aF0.10336054437042919
aF0.11663515259270431
aF0.2396097449435129
aF0.1903810352099008
aF0.03610951197928984
aF0.056259973671724584
aF0.09801111438562501
asS'MC_exp_err_SingleTop'
p27
(lp28
F0.07943358174649254
aF0.024123987879826926
aF0.026379447153508918
aF0.05636524302309011
aF0.042553580559325795
aF0.012476212424179997
aF0.016900248855657447
aF0.03520375426005001
asS'Fitted_err_ttbar'
p29
(lp30
F0.10200842841258302
aF0.0841684568205849
aF0.017417480552652742
aF0.05100639819699034
aF0.03583543083982625
aF0.014062811510734404
aF0.0
aF0.030818915973376163
asS'Fitted_err_Other'
p31
(lp32
F0.035098007910798694
aF0.0
aF0.00899020610087025
aF0.033804178194868056
aF0.009180928266621168
aF0.0
aF0.012196294710527782
aF0.0001269236397295337
asS'Fitted_events_ZGamma'
p33
(lp34
F0.5420901150007879
aF0.19506120859449033
aF0.34679609702052544
aF0.0002350119458183965
aF0.2290726399339325
aF0.07887881094002969
aF0.15018429068933578
aF9.602651534931474e-06
asS'MC_exp_err_ZGamma'
p35
(lp36
F0.20933383279021534
aF0.0782951692016252
aF0.13718339915674688
aF9.672102718584129e-05
aF0.0896863910641797
aF0.03410210690875504
aF0.06215182995324105
aF4.219020996088945e-06
asS'TOTAL_FITTED_bkg_events_err'
p37
(lp38
F0.3515250858747807
aF0.14775656778141802
aF0.20128664859432208
aF0.11290712377612243
aF0.15781718254604907
aF0.061353878162451324
aF0.09974591096515743
aF0.06044944825297182
asS'nobs'
p39
(lp40
F0.0
aF0.0
aF0.0
aF0.0
aF0.0
aF0.0
aF0.0
aF0.0
asS'Fitted_err_SingleTop'
p41
(lp42
F0.07910328589133529
aF0.024033271495590317
aF0.026287995748750192
aF0.05625206086464657
aF0.04242168351636694
aF0.01244365144815021
aF0.01685753098182355
aF0.03515734497291153
asS'Fitted_events_ttbar'
p43
(lp44
F0.33171536029440946
aF0.06691775415728361
aF0.07091299194068168
aF0.19385904128386552
aF0.0983398664415342
aF0.031183274752568272
aF0.0
aF0.06715657526487814
asS'MC_exp_events_ttbar'
p45
(lp46
F0.3094690318297648
aF0.06228860963575959
aF0.0662321272821647
aF0.18094829491184056
aF0.09182892372457087
aF0.029117473167752848
aF0.0
aF0.0627114524194631
asS'MC_exp_events_ZGamma'
p47
(lp48
F0.39125637635185
aF0.14070259961939335
aF0.2503836650830722
aF0.00016977235694260568
aF0.16541414791300535
aF0.056968414739915284
aF0.10843883766102344
aF6.9334916543646614e-06
asS'TOTAL_MC_EXP_BKG_events'
p49
(lp50
F1.2306023492906515
aF0.3064518746342433
aF0.47460155898334216
aF0.4495486564743626
aF0.4894449664079565
aF0.12223368580462687
aF0.20608406807180152
aF0.1611272641608118
asS'MC_exp_events_SingleTop'
p51
(lp52
F0.45974425622647047
aF0.10346066537909031
aF0.11664798389189601
aF0.23963568146128714
aF0.19050609303435803
aF0.03614779789695874
aF0.056307447684568766
aF0.09805085862870097
as.