(dp0
S'Fitted_err_ZGamma'
p1
(lp2
F4.817934648435207
aF2.039661221694496
aF2.9521644147100945
aF0.03850222133091124
aF5.380852946927255
aF2.1823166771042235
aF3.7212280553342074
aF0.07272549900510905
aF0.7916497979156703
aF0.2250292586330269
aF0.5232877589278957
aF0.05054846936007382
aF60.36067002040642
aF27.718086866309076
aF32.67154915651206
asS'MC_exp_events_Other'
p3
(lp4
F4.895541017250107
aF1.4160353689426586
aF1.2818994497133644
aF2.1976065599458643
aF8.499739881183558
aF2.190740181458116
aF2.382323221988103
aF3.9266615827035025
aF2.1018953108146823
aF0.5066009132140343
aF0.659567573139502
aF0.9357319266588847
aF6.655041415746894
aF3.057334546999728
aF3.597707233823527
asS'Fitted_events_Other'
p5
(lp6
F4.894280763912964
aF1.4147349349882987
aF1.2816122333121518
aF2.19794597046747
aF8.497714446287736
aF2.1902343845651453
aF2.3816222783624985
aF3.9258435671767637
aF2.1021774202447125
aF0.5065857665965201
aF0.6592702169880577
aF0.9363298251409542
aF6.652581478235829
aF3.055696965670848
aF3.596885621587319
asS'names'
p7
(lp8
S'VR_top_1_all_mbl_0'
p9
aS'VR_top_1_ee_mbl_0'
p10
aS'VR_top_1_mm_mbl_0'
p11
aS'VR_top_1_em_mbl_0'
p12
aS'VR_top_2_all_mbl_0'
p13
aS'VR_top_2_ee_mbl_0'
p14
aS'VR_top_2_mm_mbl_0'
p15
aS'VR_top_2_em_mbl_0'
p16
aS'VR_top_3_all_mbl_0'
p17
aS'VR_top_3_ee_mbl_0'
p18
aS'VR_top_3_mm_mbl_0'
p19
aS'VR_top_3_em_mbl_0'
p20
aS'VR_Z_all_mbl_0'
p21
aS'VR_Z_ee_mbl_0'
p22
aS'VR_Z_mm_mbl_0'
p23
asS'MC_exp_err_ttbar'
p24
(lp25
F56.415105715554695
aF12.739005155706081
aF15.208410807762345
aF28.62133383085521
aF45.327503975909266
aF9.828860993802548
aF11.928790629377644
aF23.67728074513065
aF6.54331114249351
aF1.5594760249822186
aF1.705218048435105
aF3.4940712922404433
aF0.4060547468910739
aF0.2307019492808875
aF0.18663620670656506
asS'TOTAL_MC_EXP_BKG_err'
p26
(lp27
F60.95799318438905
aF14.53688682223344
aF17.15089270229165
aF29.558494680304875
aF53.27784838749003
aF12.619251488365359
aF15.049995779051763
aF25.935217221480137
aF8.187506033058957
aF1.9772021460066476
aF2.2185600207148073
aF4.306252115756458
aF44.70332749496885
aF20.592397033803255
aF24.13216345151136
asS'TOTAL_FITTED_bkg_events'
p28
(lp29
F693.3465168114941
aF168.64187190897024
aF202.80551959914465
aF321.9004684553943
aF627.125043270529
aF147.666602528642
aF188.06999355407814
aF291.3889334163824
aF72.45173693035119
aF16.878364734438087
aF19.87177779281685
aF35.70157560989777
aF129.4897647163914
aF59.667028432071966
aF69.82265368145713
asS'MC_exp_err_Other'
p30
(lp31
F0.44697610708270075
aF0.13133760702870748
aF0.12598266700192845
aF0.2644004758512048
aF0.8409357660516857
aF0.22370871955300856
aF0.32659133440407584
aF0.3432395741885609
aF0.279769664688047
aF0.08453584252212708
aF0.08431908228065325
aF0.14753059772230456
aF0.7192352143232308
aF0.3196734178259178
aF0.4189414907585295
asS'Fitted_events_SingleTop'
p32
(lp33
F23.82414512648131
aF5.527649321962608
aF6.1565459356856085
aF12.139930865511868
aF58.450127364674884
aF12.803566158073892
aF15.483028454704572
aF30.163641149326054
aF14.587996283486486
aF3.357701184087184
aF3.790107742578623
aF7.440113646495156
aF0.33266072129210494
aF0.15822886362058752
aF0.1744308690868912
asS'MC_exp_err_SingleTop'
p34
(lp35
F2.686215797636785
aF0.623595914231391
aF0.7156513534187849
aF1.3783780730019217
aF6.668450164310781
aF1.5119286249408066
aF1.7567649845891227
aF3.4151737211008113
aF1.9606760220097474
aF0.4659441123271646
aF0.5386271578055571
aF1.0084603518935333
aF0.04317133410274954
aF0.021800364902183466
aF0.023238078147730473
asS'Fitted_err_ttbar'
p36
(lp37
F43.98166350713265
aF9.100431489482379
aF12.187663193878116
aF22.873967164387345
aF35.415371655652244
aF7.453863357771751
aF9.983940471857894
aF18.119170773117254
aF4.75990249418013
aF1.236710831105009
aF1.3140541984728096
aF2.5465810643296973
aF0.23485635395668442
aF0.12625943031366174
aF0.1314926218982397
asS'Fitted_err_Other'
p38
(lp39
F0.4442084946960302
aF0.13042298036809943
aF0.12521489957416265
aF0.2626000206998069
aF0.8362255651579906
aF0.22297620066737106
aF0.3245144430574385
aF0.3413204089755594
aF0.2780829704711112
aF0.08399908323998634
aF0.08381671121069802
aF0.14668289264754886
aF0.7147872545028247
aF0.3176691196327656
aF0.41639279138911484
asS'Fitted_events_ZGamma'
p40
(lp41
F63.19986553113864
aF26.871521860190036
aF36.00511711178414
aF0.32325760737836845
aF64.32888291731574
aF26.285505575049882
aF37.802447688199976
aF0.24106381253782772
aF1.5333934040426416
aF0.4357492639821671
aF0.9980134029071452
aF0.09961008509445639
aF119.52295125421698
aF54.911139968569714
aF64.61172125850234
asS'MC_exp_err_ZGamma'
p42
(lp43
F4.336414863355926
aF2.135789815537236
aF2.283466554597222
aF0.01801320815909876
aF5.197346794669106
aF2.542110463175023
aF2.908660580562614
aF0.056350015873905396
aF0.567990532578689
aF0.1622618051397775
aF0.37390663241808836
aF0.03713858898183756
aF44.46282732823877
aF20.479511378428032
aF24.003939081399263
asS'TOTAL_FITTED_bkg_events_err'
p44
(lp45
F45.49337365881897
aF9.63359602591476
aF13.721552950707192
aF22.53688278605638
aF35.85220830519391
aF7.91685862104131
aF11.227925546865835
aF17.50495496123372
aF5.255923231648625
aF1.3963005443264376
aF1.5916728613612237
aF2.837084356206287
aF60.39571469537344
aF27.737043875230995
aF32.68789352754959
asS'nobs'
p46
(lp47
F645.0
aF158.0
aF217.0
aF270.0
aF606.0
aF153.0
aF189.0
aF264.0
aF67.0
aF11.0
aF17.0
aF39.0
aF101.0
aF45.0
aF56.0
asS'Fitted_err_SingleTop'
p48
(lp49
F2.669197367953241
aF0.6197445687730562
aF0.7108450113574938
aF1.3697945222895613
aF6.626779152293525
aF1.5025156865304077
aF1.7457602575613251
aF3.393838744369025
aF1.9491337612936344
aF0.4634066869993669
aF0.5357522695246052
aF1.0025625668787022
aF0.04287556173485832
aF0.021653075789724138
aF0.023084567617511702
asS'Fitted_events_ttbar'
p50
(lp51
F601.4255872322594
aF134.8273236448464
aF159.3614722082859
aF307.23811010720414
aF495.8453556970481
aF106.38667869176497
aF132.40191980995903
aF257.05714017446576
aF54.22797329353131
aF12.578271726121873
aF14.424334012795116
aF27.225337525261494
aF2.9806421574976083
aF1.5415415628607592
aF1.439107901032585
asS'MC_exp_events_ttbar'
p52
(lp53
F561.32093069263
aF125.82377019340538
aF148.74694968816937
aF286.7514181441059
aF462.72007128825913
aF99.28105566818631
aF123.56402747514541
aF239.8753705575617
aF50.59201217061384
aF11.733797842635962
aF13.459734520221517
aF25.398465927311165
aF2.7813962473138343
aF1.4383236138187385
aF1.3430733487481046
asS'MC_exp_events_ZGamma'
p54
(lp55
F45.629696593226875
aF19.398094748263443
aF25.998232937031872
aF0.2333914079006263
aF46.4331752286094
aF18.96970609534417
aF27.289621704833095
aF0.17401214991092218
aF1.1075874078189936
aF0.314640378597569
aF0.7210178101980955
aF0.0719171131347534
aF86.27990823574294
aF39.63372235266223
aF46.64610405438917
asS'TOTAL_MC_EXP_BKG_events'
p56
(lp57
F635.6821581204422
aF152.1678260688204
aF182.1882956624031
aF301.32725354703143
aF576.1209735348821
aF133.2473734964151
aF168.72444536053808
aF274.1497021494433
aF68.39106293674558
aF15.913253462407738
aF18.630664852447808
aF33.84714268078096
aF96.04996065609157
aF44.28807894978672
aF51.76180095691234
asS'MC_exp_events_SingleTop'
p58
(lp59
F23.833571093521332
aF5.529346373691808
aF6.160519923250462
aF12.143691756250096
aF58.46530396111632
aF12.805308249916177
aF15.487620020816045
aF30.172477838986428
aF14.589388030377913
aF3.3581631190585326
aF3.790298737344534
aF7.440852613564771
aF0.33292904643561805
aF0.15838726586036778
aF0.17454178057525027
as.