(dp0
S'Fitted_err_ZGamma'
p1
(lp2
F0.2815233022248355
aF0.10493993575608802
aF0.1853440435096469
aF0.0001310801754418195
aF0.12248995950377534
aF0.046583539930416834
aF0.08512079642054735
aF5.85987325340814e-06
asS'MC_exp_events_Other'
p3
(lp4
F0.07013268488256634
aF0.0
aF0.04133778272620931
aF0.028794907744292244
aF0.041695801736022234
aF0.0
aF0.04133778272620931
aF0.00035801962099333645
asS'Fitted_events_Other'
p5
(lp6
F0.07036582746179343
aF0.0
aF0.041337989733776614
aF0.02915821932048877
aF0.04168048340300617
aF0.0
aF0.041337989733776614
aF0.00035772504584746236
asS'names'
p7
(lp8
S'SR_ht_1100_mbl_400_all_mbl_0'
p9
aS'SR_ht_1100_mbl_400_ee_mbl_0'
p10
aS'SR_ht_1100_mbl_400_mm_mbl_0'
p11
aS'SR_ht_1100_mbl_400_em_mbl_0'
p12
aS'SR_ht_1100_mbl_600_all_mbl_0'
p13
aS'SR_ht_1100_mbl_600_ee_mbl_0'
p14
aS'SR_ht_1100_mbl_600_mm_mbl_0'
p15
aS'SR_ht_1100_mbl_600_em_mbl_0'
p16
asS'MC_exp_err_ttbar'
p17
(lp18
F0.11225118851151865
aF0.08210157531559116
aF0.01753043038636611
aF0.052321376686886696
aF0.034624862565657305
aF0.01327688104270702
aF0.0
aF0.02956672321496718
asS'TOTAL_MC_EXP_BKG_err'
p19
(lp20
F0.31896812409995945
aF0.13273880706557528
aF0.15911336797381742
aF0.11793227607964858
aF0.1338964026668559
aF0.05026273345606611
aF0.07903911916933398
aF0.06024555189262227
asS'TOTAL_FITTED_bkg_events'
p21
(lp22
F1.4037772309463252
aF0.3653395743660711
aF0.5756822819507845
aF0.46286219980197707
aF0.5594741485271346
aF0.1461716222379246
aF0.24778224580041872
aF0.1655350790960626
asS'MC_exp_err_Other'
p23
(lp24
F0.035270888839440837
aF0.0
aF0.009016210337374705
aF0.03354966079813959
aF0.009206230617366324
aF0.0
aF0.012215447742885953
aF0.0001271349744687717
asS'Fitted_events_SingleTop'
p25
(lp26
F0.45960568346998226
aF0.10336052735091054
aF0.11663514873029313
aF0.23960974487460504
aF0.1903810609171755
aF0.03610950913597531
aF0.056259968909905686
aF0.0980111176477602
asS'MC_exp_err_SingleTop'
p27
(lp28
F0.07943354471607215
aF0.024123977720508685
aF0.026379444412552792
aF0.05636525318579479
aF0.04255357335186273
aF0.012476213071137205
aF0.016900249950038627
aF0.035203754788587296
asS'Fitted_err_ttbar'
p29
(lp30
F0.10199800963698803
aF0.08415664776412485
aF0.01741691020249621
aF0.05100592747601545
aF0.03583532735103627
aF0.014062688720468283
aF0.0
aF0.030818865519300503
asS'Fitted_err_Other'
p31
(lp32
F0.035093767628768924
aF0.0
aF0.008989016657655027
aF0.03380155991398537
aF0.009180030069029526
aF0.0
aF0.012195417806826097
aF0.00012691836990777074
asS'Fitted_events_ZGamma'
p33
(lp34
F0.5420900735246743
aF0.19506123195431196
aF0.34679609413233686
aF0.00023501192241926822
aF0.22907265422384865
aF0.07887881329675436
aF0.1501842871567364
aF9.602651969154327e-06
asS'MC_exp_err_ZGamma'
p35
(lp36
F0.20933383918000384
aF0.07829517128081184
aF0.13718340022159134
aF9.672102718584129e-05
aF0.08968639774445351
aF0.03410210393731831
aF0.06215182995324105
aF4.219020996088945e-06
asS'TOTAL_FITTED_bkg_events_err'
p37
(lp38
F0.3515117458184412
aF0.14774698028879932
aF0.20128602366296006
aF0.11290136364634056
aF0.15781612821396743
aF0.06135367886884674
aF0.09974576029470884
aF0.060448347984264676
asS'nobs'
p39
(lp40
F2.0
aF0.0
aF2.0
aF0.0
aF1.0
aF0.0
aF1.0
aF0.0
asS'Fitted_err_SingleTop'
p41
(lp42
F0.07909114201645635
aF0.024030888480984742
aF0.02628478866253428
aF0.056248057369641793
aF0.042417330581330515
aF0.012442915879949557
aF0.016856817222097323
aF0.035155736889116315
asS'Fitted_events_ttbar'
p43
(lp44
F0.33171564648987534
aF0.06691781506084857
aF0.0709130493543779
aF0.193859223684464
aF0.09833994998310429
aF0.031183299805194926
aF0.0
aF0.06715663375048578
asS'MC_exp_events_ttbar'
p45
(lp46
F0.3094690318297648
aF0.06228860963575959
aF0.0662321272821647
aF0.18094830981300117
aF0.09182892372457087
aF0.029117473167752848
aF0.0
aF0.0627114524194631
asS'MC_exp_events_ZGamma'
p47
(lp48
F0.39125634654952884
aF0.14070261452055394
aF0.2503836650830722
aF0.00016977235694260568
aF0.16541416281416596
aF0.05696841846520543
aF0.10843883766102344
aF6.9334916543646614e-06
asS'TOTAL_MC_EXP_BKG_events'
p49
(lp50
F1.2306023790929728
aF0.3064518746342433
aF0.4746015515327619
aF0.4495486564743626
aF0.4894450111114383
aF0.12223368952991702
aF0.20608406807180152
aF0.1611272641608118
asS'MC_exp_events_SingleTop'
p51
(lp52
F0.45974431583111286
aF0.10346065047792971
aF0.1166479764413157
aF0.23963566656012655
aF0.19050612283667923
aF0.03614779789695874
aF0.056307447684568766
aF0.09805085862870097
as.