(dp0
S'Fitted_err_ZGamma'
p1
(lp2
F0.6350074573225507
aF18.158849153060576
aF4.817014242408328
aF5.380375517267802
aF0.7916413173996385
aF60.360655683445515
aF0.2815233022248355
aF0.12248995950377534
asS'MC_exp_events_Other'
p3
(lp4
F2.930805565903759
aF8.935205102186508
aF4.895541017250107
aF8.499739881183558
aF2.1018953108146823
aF6.655041415746894
aF0.07013268488256634
aF0.041695801736022234
asS'Fitted_events_Other'
p5
(lp6
F2.931011896146875
aF8.938308187012579
aF4.894280690679792
aF8.497714159528716
aF2.1021774279716787
aF6.652581170641902
aF0.07036582746179343
aF0.04168048340300617
asS'names'
p7
(lp8
S'CR_top_all_mbl_0'
p9
aS'CR_Z_all_mbl_0'
p10
aS'VR_top_1_all_mbl_0'
p11
aS'VR_top_2_all_mbl_0'
p12
aS'VR_top_3_all_mbl_0'
p13
aS'VR_Z_all_mbl_0'
p14
aS'SR_ht_1100_mbl_400_all_mbl_0'
p15
aS'SR_ht_1100_mbl_600_all_mbl_0'
p16
asS'MC_exp_err_ttbar'
p17
(lp18
F36.73735771820058
aF1.1105496422237795
aF56.41546581740562
aF45.32726948940687
aF6.543284277676748
aF0.4060547209404144
aF0.11225118851151865
aF0.034624862565657305
asS'TOTAL_MC_EXP_BKG_err'
p19
(lp20
F38.353694569774
aF26.48936165476446
aF60.95844336076577
aF53.27756275649069
aF8.187480058767754
aF44.70332666118555
aF0.31896812409995945
aF0.1338964026668559
asS'TOTAL_FITTED_bkg_events'
p21
(lp22
F369.1436661342816
aF327.1064852633525
aF693.3484057118563
aF627.1270427169627
aF72.45177224863954
aF129.48976777940018
aF1.4037772309463252
aF0.5594741485271346
asS'MC_exp_err_Other'
p23
(lp24
F0.27991890199108055
aF1.0517112384778622
aF0.44697610704659724
aF0.8409357660503239
aF0.2797696647022407
aF0.7192352143232308
aF0.035270888839440837
aF0.009206230617366324
asS'Fitted_events_SingleTop'
p25
(lp26
F17.297607693935905
aF0.8556046151791507
aF23.824135181169588
aF58.450269139035484
aF14.58800953531432
aF0.33266074810775115
aF0.45960568346998226
aF0.1903810609171755
asS'MC_exp_err_SingleTop'
p27
(lp28
F2.1107638673178664
aF0.09404276084260207
aF2.686262202086705
aF6.668364976868097
aF1.9606759216933947
aF0.043171277033001686
aF0.07943354471607215
aF0.04255357335186273
asS'Fitted_err_ttbar'
p29
(lp30
F19.371997519183942
aF0.6906428632897437
aF43.97869947487858
aF35.41253208019311
aF4.759260564499224
aF0.23483623512346702
aF0.10199800963698803
aF0.03583532735103627
asS'Fitted_err_Other'
p31
(lp32
F0.2782274400708281
aF1.0463387605634973
aF0.4440727678818859
aF0.8359655230081987
aF0.2779919982693655
aF0.7145743697937759
aF0.035093767628768924
aF0.009180030069029526
asS'Fitted_events_ZGamma'
p33
(lp34
F3.1770041049665694
aF308.21041893735685
aF63.199866460574995
aF64.32888243582838
aF1.5333933337742374
aF119.52295115275436
aF0.5420900735246743
aF0.22907265422384865
asS'MC_exp_err_ZGamma'
p35
(lp36
F0.3895130943099425
aF24.688379928923766
aF4.336413696641177
aF5.197346794597583
aF0.5679905326046878
aF44.462826480623775
aF0.20933383918000384
aF0.08968639774445351
asS'TOTAL_FITTED_bkg_events_err'
p37
(lp38
F19.21869654268091
aF18.088069108037896
aF45.49039339621364
aF35.85032560267723
aF5.2550968762146395
aF60.39571713360286
aF0.3515117458184412
aF0.15781612821396743
asS'nobs'
p39
(lp40
F369.0
aF327.0
aF645.0
aF606.0
aF67.0
aF101.0
aF2.0
aF1.0
asS'Fitted_err_SingleTop'
p41
(lp42
F2.097588857305193
aF0.09342386403090154
aF2.668808255634239
aF6.625430496604307
aF1.9486808695408242
aF0.04286916090297422
aF0.07909114201645635
aF0.042417330581330515
asS'Fitted_events_ttbar'
p43
(lp44
F345.7380424392323
aF9.102153523803935
aF601.4274852170993
aF495.8472141257669
aF54.22799542250469
aF2.9806456022488317
aF0.33171564648987534
aF0.09833994998310429
asS'MC_exp_events_ttbar'
p45
(lp46
F322.5446648325879
aF8.492459911156082
aF561.322216210902
aF462.72142788480465
aF50.59198898447999
aF2.781396962566843
aF0.3094690318297648
aF0.09182892372457087
asS'MC_exp_events_ZGamma'
p47
(lp48
F2.2949227368774032
aF222.4348513320978
aF45.629696593226875
aF46.4331752286094
aF1.1075874078189936
aF86.27990823574294
aF0.39125634654952884
aF0.16541416281416596
asS'TOTAL_MC_EXP_BKG_events'
p49
(lp50
F345.0685911433923
aF240.71845432857114
aF635.6834339261986
aF576.1224698536098
aF68.39105259533972
aF96.04996140114963
aF1.2306023790929728
aF0.4894450111114383
asS'MC_exp_events_SingleTop'
p51
(lp52
F17.298198008023224
aF0.8559379831307959
aF23.833561376138633
aF58.46544367679952
aF14.589400875342106
aF0.33292907623782675
aF0.45974431583111286
aF0.19050612283667923
as.