(dp0
S'Fitted_err_ZGamma'
p1
(lp2
F0.6350074573225507
aF0.16430931581077626
aF0.2960639555709876
aF0.016371840592874536
aF18.158849153060576
aF8.316745962059045
aF10.280107652448589
asS'MC_exp_events_Other'
p3
(lp4
F2.930805565903759
aF0.5135842329831393
aF0.9423987678437697
aF1.4748121734208368
aF8.935205102186508
aF4.054183269075018
aF4.8809887835697054
asS'Fitted_events_Other'
p5
(lp6
F2.931011896146875
aF0.5139743534613868
aF0.9420377165331306
aF1.474974068672311
aF8.938308187012579
aF4.056065880662077
aF4.88220236896938
asS'names'
p7
(lp8
S'CR_top_all_mbl_0'
p9
aS'CR_top_ee_mbl_0'
p10
aS'CR_top_mm_mbl_0'
p11
aS'CR_top_em_mbl_0'
p12
aS'CR_Z_all_mbl_0'
p13
aS'CR_Z_ee_mbl_0'
p14
aS'CR_Z_mm_mbl_0'
p15
asS'MC_exp_err_ttbar'
p16
(lp17
F36.73735771820058
aF7.903767540039122
aF9.884284074145757
aF19.015637064359197
aF1.1105496422237795
aF0.39364285863547477
aF0.7418439569859828
asS'TOTAL_MC_EXP_BKG_err'
p18
(lp19
F38.353694569774
aF8.281195768731955
aF10.333206104053502
aF19.80979541467959
aF26.48936165476446
aF12.056598074864876
aF14.593043556874322
asS'TOTAL_FITTED_bkg_events'
p20
(lp21
F369.1436661342816
aF80.79175927305401
aF101.19537446747103
aF187.15641613031815
aF327.1064852633525
aF145.20272975393468
aF181.90322780248155
asS'MC_exp_err_Other'
p22
(lp23
F0.27991890199108055
aF0.06354796470428975
aF0.08730690115643808
aF0.1437278943674223
aF1.0517112384778622
aF0.5456899572561297
aF0.5541510317376238
asS'Fitted_events_SingleTop'
p24
(lp25
F17.297607693935905
aF3.889149505914842
aF4.711892276510161
aF8.69649259370549
aF0.8556046151791507
aF0.3844641761691169
aF0.47113724997494444
asS'MC_exp_err_SingleTop'
p26
(lp27
F2.1107638673178664
aF0.48023520069425535
aF0.5752620404194599
aF1.0633651685005516
aF0.09404276084260207
aF0.04356532843154661
aF0.05238404708988503
asS'Fitted_err_ttbar'
p28
(lp29
F19.371997519183942
aF4.259278637392483
aF5.33515404695319
aF9.92520796540829
aF0.6906428632897437
aF0.2352310130854269
aF0.4986776923076956
asS'Fitted_err_Other'
p30
(lp31
F0.2782274400708281
aF0.0634490903653203
aF0.08672686091559585
aF0.14283799892564983
aF1.0463387605634973
aF0.5432621087832021
aF0.5508284247739382
asS'Fitted_events_ZGamma'
p32
(lp33
F3.1770041049665694
aF1.1707765620854327
aF1.8556257261936997
aF0.15062347643067528
aF308.21041893735685
aF137.34882012138848
aF170.8599055628183
asS'MC_exp_err_ZGamma'
p34
(lp35
F0.3895130943099425
aF0.08253400769206466
aF0.1506039822454484
aF0.010254824103568351
aF24.688379928923766
aF11.299257378558725
aF13.555775052615425
asS'TOTAL_FITTED_bkg_events_err'
p36
(lp37
F19.21869654268091
aF4.225191505247438
aF5.299272965749263
aF9.879001098940138
aF18.088069108037896
aF8.304235290831416
aF10.235235553917395
asS'nobs'
p38
(lp39
F369.0
aF95.0
aF115.0
aF159.0
aF327.0
aF151.0
aF176.0
asS'Fitted_err_SingleTop'
p40
(lp41
F2.097588857305193
aF0.47716384319980193
aF0.5716871299710495
aF1.0567564606812598
aF0.09342386403090154
aF0.04327762128982347
aF0.05203689384554928
asS'Fitted_events_ttbar'
p42
(lp43
F345.7380424392323
aF75.21755111001113
aF93.68543376504994
aF176.83361367385254
aF9.102153523803935
aF3.4128300260970725
aF5.689291157701624
asS'MC_exp_events_ttbar'
p44
(lp45
F322.5446648325879
aF70.17354734179605
aF87.40260061800666
aF164.96716586305965
aF8.492459911156082
aF3.1842961433094388
aF5.308132903468504
asS'MC_exp_events_ZGamma'
p46
(lp47
F2.2949227368774032
aF0.8454952732083854
aF1.3406303811417999
aF0.10878940142888327
aF222.4348513320978
aF99.12071352180367
aF123.31293776645907
asS'TOTAL_MC_EXP_BKG_events'
p48
(lp49
F345.0685911433923
aF75.4221786733251
aF94.39852343779057
aF175.2477577776881
aF240.71845432857114
aF106.74421312846245
aF133.97388738580048
asS'MC_exp_events_SingleTop'
p50
(lp51
F17.298198008023224
aF3.889264536566742
aF4.71253455118444
aF8.696323340311295
aF0.8559379831307959
aF0.38461615015402373
aF0.47131862535285407
as.