(dp0
S'Fitted_err_ZGamma'
p1
(lp2
F4.817014242408328
aF2.0393386956587
aF2.9515773213455647
aF0.03849142914961623
aF5.380375517267802
aF2.182224507541397
aF3.7207275727882987
aF0.07272289153610544
aF0.7916413173996385
aF0.22502770511870673
aF0.5232797803742849
aF0.050548390403546736
aF60.360655683445515
aF27.718084321296494
aF32.67153448381154
asS'MC_exp_events_Other'
p3
(lp4
F4.895541017250107
aF1.4160353689426586
aF1.2818994497133644
aF2.1976065599458643
aF8.499739881183558
aF2.190740181458116
aF2.382323221988103
aF3.9266615827035025
aF2.1018953108146823
aF0.5066009132140343
aF0.659567573139502
aF0.9357319266588847
aF6.655041415746894
aF3.057334546999728
aF3.597707233823527
asS'Fitted_events_Other'
p5
(lp6
F4.894280690679792
aF1.4147348149049026
aF1.281612265352228
aF2.1979459864324515
aF8.497714159528716
aF2.190234314654278
aF2.3816220948461
aF3.9258435354682018
aF2.1021774279716787
aF0.5065857619249341
aF0.6592701637490803
aF0.9363298909469678
aF6.652581170641902
aF3.0556968193603407
aF3.5968854602950406
asS'names'
p7
(lp8
S'VR_top_1_all_mbl_0'
p9
aS'VR_top_1_ee_mbl_0'
p10
aS'VR_top_1_mm_mbl_0'
p11
aS'VR_top_1_em_mbl_0'
p12
aS'VR_top_2_all_mbl_0'
p13
aS'VR_top_2_ee_mbl_0'
p14
aS'VR_top_2_mm_mbl_0'
p15
aS'VR_top_2_em_mbl_0'
p16
aS'VR_top_3_all_mbl_0'
p17
aS'VR_top_3_ee_mbl_0'
p18
aS'VR_top_3_mm_mbl_0'
p19
aS'VR_top_3_em_mbl_0'
p20
aS'VR_Z_all_mbl_0'
p21
aS'VR_Z_ee_mbl_0'
p22
aS'VR_Z_mm_mbl_0'
p23
asS'MC_exp_err_ttbar'
p24
(lp25
F56.41546581740562
aF12.73899727501392
aF15.208468429308912
aF28.621045259998372
aF45.32726948940687
aF9.828972191204379
aF11.928813215237899
aF23.677426984470372
aF6.543284277676748
aF1.5594751871917567
aF1.705219821233446
aF3.4940682159261742
aF0.4060547209404144
aF0.23070183539248426
aF0.18663608782814106
asS'TOTAL_MC_EXP_BKG_err'
p26
(lp27
F60.95844336076577
aF14.536869011957128
aF17.15096363359849
aF29.55820428607246
aF53.27756275649069
aF12.619330012582973
aF15.050023417155664
aF25.935344890915836
aF8.187480058767754
aF1.9772011722166407
aF2.2185618714474793
aF4.30624821919251
aF44.70332666118555
aF20.592397862159327
aF24.132163445215866
asS'TOTAL_FITTED_bkg_events'
p28
(lp29
F693.3484057118563
aF168.64191408693094
aF202.80572262870513
aF321.90104479640746
aF627.1270427169627
aF147.66693551103756
aF188.0701388893156
aF291.38931807816465
aF72.45177224863954
aF16.87837307336218
aF19.871790165567063
aF35.70160752983515
aF129.48976777940018
aF59.667029974353035
aF69.82265390512609
asS'MC_exp_err_Other'
p30
(lp31
F0.44697610704659724
aF0.1313376069741279
aF0.12598266700192845
aF0.26440047588190696
aF0.8409357660503239
aF0.22370871958586053
aF0.3265913345775679
aF0.3432395741846946
aF0.2797696647022407
aF0.08453584336013563
aF0.08431908228065325
aF0.14753059708840982
aF0.7192352143232308
aF0.3196734178259178
aF0.4189414907585295
asS'Fitted_events_SingleTop'
p32
(lp33
F23.824135181169588
aF5.527645092835723
aF6.1565477724497875
aF12.139942517455973
aF58.450269139035484
aF12.803564462351085
aF15.483021137839875
aF30.163608975914553
aF14.58800953531432
aF3.357699905498114
aF3.7901098766743564
aF7.440108235500672
aF0.33266074810775115
aF0.1582288572638149
aF0.17443090203340034
asS'MC_exp_err_SingleTop'
p34
(lp35
F2.686262202086705
aF0.6235986981383274
aF0.7156493625159214
aF1.3783745922462292
aF6.668364976868097
aF1.5119275150346987
aF1.7567622303559682
aF3.415181058057606
aF1.9606759216933947
aF0.46594428961275763
aF0.5386275802701219
aF1.0084588089085957
aF0.043171277033001686
aF0.02180036672519573
aF0.0232380714049518
asS'Fitted_err_ttbar'
p36
(lp37
F43.97869947487858
aF9.09985232511584
aF12.186853326583904
aF22.872347127138134
aF35.41253208019311
aF7.453252748093709
aF9.98313313188694
aF18.11786279863165
aF4.759260564499224
aF1.2365821520470162
aF1.3139463248371195
aF2.5462173958038252
aF0.23483623512346702
aF0.12624199187961052
aF0.13148556650392942
asS'Fitted_err_Other'
p38
(lp39
F0.4440727678818859
aF0.13041008242684543
aF0.12518695377875008
aF0.2625158366071513
aF0.8359655230081987
aF0.22291336513254567
aF0.32443795070211207
aF0.3412051223524767
aF0.2779919982693655
aF0.0839765187385375
aF0.08379856013932395
aF0.14663914208283382
aF0.7145743697937759
aF0.31758669590843974
aF0.41626497198462353
asS'Fitted_events_ZGamma'
p40
(lp41
F63.199866460574995
aF26.87152270587142
aF36.00511717017532
aF0.32325762514437517
aF64.32888243582838
aF26.285506152466315
aF37.8024466493411
aF0.24106379313107248
aF1.5333933337742374
aF0.4357492461996138
aF0.9980133515924134
aF0.09961008390663714
aF119.52295115275436
aF54.911140452698355
aF64.61172064295918
asS'MC_exp_err_ZGamma'
p42
(lp43
F4.336413696641177
aF2.1357898154260866
aF2.2834665545048365
aF0.01801320815909876
aF5.197346794597583
aF2.5421104635092635
aF2.9086605839873747
aF0.056350015873905396
aF0.5679905326046878
aF0.1622618052760673
aF0.37390663241808836
aF0.03713858896367881
aF44.462826480623775
aF20.47951215602678
aF24.003939081399263
asS'TOTAL_FITTED_bkg_events_err'
p44
(lp45
F45.49039339621364
aF9.6329483213561
aF13.72044076351826
aF22.535543590830937
aF35.85032560267723
aF7.916393364602246
aF11.227232055953516
aF17.504047654459455
aF5.2550968762146395
aF1.3961611129983105
aF1.591553949104731
aF2.836588411587851
aF60.39571713360286
aF27.73704536144158
aF32.687891772957215
asS'nobs'
p46
(lp47
F645.0
aF158.0
aF217.0
aF270.0
aF606.0
aF153.0
aF189.0
aF264.0
aF67.0
aF11.0
aF17.0
aF39.0
aF101.0
aF45.0
aF56.0
asS'Fitted_err_SingleTop'
p48
(lp49
F2.668808255634239
aF0.6196389052474193
aF0.7107638494092204
aF1.3695466273550791
aF6.625430496604307
aF1.50221273443987
aF1.7454354911907626
aF3.3932066193973225
aF1.9486808695408242
aF0.4633088958262474
aF0.5356354917758918
aF1.0023348740761626
aF0.04286916090297422
aF0.02165136525380811
aF0.023080058094502958
asS'Fitted_events_ttbar'
p50
(lp51
F601.4274852170993
aF134.82736932583106
aF159.36167330990486
aF307.2386747606978
aF495.8472141257669
aF106.38701286110405
aF132.40207368354274
aF257.05755705908456
aF54.22799542250469
aF12.57828136601298
aF14.424344355967282
aF27.22537479161773
aF2.9806456022488317
aF1.5415427737427176
aF1.439108869074708
asS'MC_exp_events_ttbar'
p52
(lp53
F561.322216210902
aF125.82369414561941
aF148.74701167676346
aF286.75168994024926
aF462.72142788480465
aF99.2812770389939
aF123.56406174768472
aF239.8755308934459
aF50.59198898447999
aF11.733796531343376
aF13.459732642693425
aF25.398478801826435
aF2.781396962566843
aF1.438323375401069
aF1.343073110330435
asS'MC_exp_events_ZGamma'
p54
(lp55
F45.629696593226875
aF19.398094748263443
aF25.998232937031872
aF0.2333914079006263
aF46.4331752286094
aF18.96970609534417
aF27.289621704833095
aF0.17401214991092218
aF1.1075874078189936
aF0.314640378597569
aF0.7210178101980955
aF0.0719171131347534
aF86.27990823574294
aF39.63372235638754
aF46.64610405438917
asS'TOTAL_MC_EXP_BKG_events'
p56
(lp57
F635.6834339261986
aF152.16774573666044
aF182.18835954368114
aF301.32753684790805
aF576.1224698536098
aF133.24759283405726
aF168.72447224968346
aF274.1498301057145
aF68.39105259533972
aF15.913250761572272
aF18.63066500145942
aF33.84714990784414
aF96.04996140114963
aF44.288078715093434
aF51.76180074829608
asS'MC_exp_events_SingleTop'
p58
(lp59
F23.833561376138633
aF5.529342089624307
aF6.160521815690714
aF12.143703259902654
aF58.46544367679952
aF12.805306215925961
aF15.487612637365094
aF30.17244545907818
aF14.589400875342106
aF3.358161729518914
aF3.790300763937485
aF7.440846966080557
aF0.33292907623782675
aF0.15838726586036778
aF0.17454181037745897
as.